target datalayout = "e-m:e-p270:32:32-p271:32:32-p272:64:64-i64:64-i128:128-f80:128-n8:16:32:64-S128"
target triple = "x86_64-pc-linux-gnu"

%struct._CharList = type { ptr, ptr }

; Function Attrs: nounwind uwtable
define dso_local signext i8 @pkg_listContains(ptr noundef %0, ptr noundef %1) #0 {
  %3 = alloca i8, align 1
  %4 = alloca ptr, align 8
  %5 = alloca ptr, align 8
  store ptr %0, ptr %4, align 8, !tbaa !9
  store ptr %1, ptr %5, align 8, !tbaa !11
  br label %6

6:                                                ; preds = %18, %2
  %7 = load ptr, ptr %4, align 8, !tbaa !9
  %8 = icmp ne ptr %7, null
  br i1 %8, label %9, label %22

9:                                                ; preds = %6
  %10 = load ptr, ptr %4, align 8, !tbaa !9
  %11 = getelementptr inbounds nuw %struct._CharList, ptr %10, i32 0, i32 0
  %12 = load ptr, ptr %11, align 8, !tbaa !15
  %13 = load ptr, ptr %5, align 8, !tbaa !11
  %14 = call i32 @strcmp(ptr noundef %12, ptr noundef %13) #8
  %15 = icmp ne i32 %14, 0
  br i1 %15, label %17, label %16

16:                                               ; preds = %9
  store i8 1, ptr %3, align 1
  br label %23

17:                                               ; preds = %9
  br label %18

18:                                               ; preds = %17
  %19 = load ptr, ptr %4, align 8, !tbaa !9
  %20 = getelementptr inbounds nuw %struct._CharList, ptr %19, i32 0, i32 1
  %21 = load ptr, ptr %20, align 8, !tbaa !18
  store ptr %21, ptr %4, align 8, !tbaa !9
  br label %6, !llvm.loop !30

22:                                               ; preds = %6
  store i8 0, ptr %3, align 1
  br label %23

23:                                               ; preds = %22, %16
  %24 = load i8, ptr %3, align 1
  ret i8 %24
}