; Function Attrs: nofree nounwind memory(read, inaccessiblemem: none) uwtable
define dso_local signext range(i8 0, 2) i8 @pkg_listContains(ptr noundef readonly %0, ptr noundef readonly captures(none) %1) local_unnamed_addr #10 {
  %.not6 = icmp eq ptr %0, null
  br i1 %.not6, label %._crit_edge, label %.lr.ph

.lr.ph:                                           ; preds = %2, %5
  %.047 = phi ptr [ %7, %5 ], [ %0, %2 ]
  %3 = load ptr, ptr %.047, align 8, !tbaa !4
  %4 = tail call i32 @strcmp(ptr noundef nonnull dereferenceable(1) %3, ptr noundef nonnull dereferenceable(1) %1) #12
  %.not5 = icmp eq i32 %4, 0
  br i1 %.not5, label %._crit_edge, label %5

5:                                                ; preds = %.lr.ph
  %6 = getelementptr inbounds nuw i8, ptr %.047, i64 8
  %7 = load ptr, ptr %6, align 8, !tbaa !12
  %.not = icmp eq ptr %7, null
  br i1 %.not, label %._crit_edge, label %.lr.ph, !llvm.loop !22

._crit_edge:                                      ; preds = %.lr.ph, %5, %2
  %.0 = phi i8 [ 0, %2 ], [ 0, %5 ], [ 1, %.lr.ph ]
  ret i8 %.0
}